; ModuleID = '9/809.c'
source_filename = "9/809.c"
target datalayout = "e-m:e-p270:32:32-p271:32:32-p272:64:64-i64:64-f80:128-n8:16:32:64-S128"
target triple = "x86_64-pc-linux-gnu"

%struct.patient = type { [10 x i8], i32 }

@.str = private unnamed_addr constant [3 x i8] c"%d\00", align 1
@.str.1 = private unnamed_addr constant [6 x i8] c"%s %d\00", align 1
@.str.2 = private unnamed_addr constant [4 x i8] c"%s\0A\00", align 1

; Function Attrs: noinline nounwind uwtable
define dso_local void @main() #0 {
  %1 = alloca i32, align 4
  %2 = alloca i32, align 4
  %3 = alloca i32, align 4
  %4 = alloca i32, align 4
  %5 = alloca [1000 x %struct.patient], align 16
  %6 = alloca %struct.patient, align 4
  %7 = call i32 (i8*, ...) @__isoc99_scanf(i8* getelementptr inbounds ([3 x i8], [3 x i8]* @.str, i64 0, i64 0), i32* %1)
  store i32 0, i32* %2, align 4
  br label %8

8:                                                ; preds = %23, %0
  %9 = load i32, i32* %2, align 4
  %10 = load i32, i32* %1, align 4
  %11 = icmp slt i32 %9, %10
  br i1 %11, label %12, label %26

12:                                               ; preds = %8
  %13 = load i32, i32* %2, align 4
  %14 = sext i32 %13 to i64
  %15 = getelementptr inbounds [1000 x %struct.patient], [1000 x %struct.patient]* %5, i64 0, i64 %14
  %16 = getelementptr inbounds %struct.patient, %struct.patient* %15, i32 0, i32 0
  %17 = getelementptr inbounds [10 x i8], [10 x i8]* %16, i64 0, i64 0
  %18 = load i32, i32* %2, align 4
  %19 = sext i32 %18 to i64
  %20 = getelementptr inbounds [1000 x %struct.patient], [1000 x %struct.patient]* %5, i64 0, i64 %19
  %21 = getelementptr inbounds %struct.patient, %struct.patient* %20, i32 0, i32 1
  %22 = call i32 (i8*, ...) @__isoc99_scanf(i8* getelementptr inbounds ([6 x i8], [6 x i8]* @.str.1, i64 0, i64 0), i8* %17, i32* %21)
  br label %23

23:                                               ; preds = %12
  %24 = load i32, i32* %2, align 4
  %25 = add nsw i32 %24, 1
  store i32 %25, i32* %2, align 4
  br label %8

26:                                               ; preds = %8
  store i32 0, i32* %2, align 4
  br label %27

27:                                               ; preds = %83, %26
  %28 = load i32, i32* %2, align 4
  %29 = load i32, i32* %1, align 4
  %30 = icmp slt i32 %28, %29
  br i1 %30, label %31, label %86

31:                                               ; preds = %27
  %32 = load i32, i32* %1, align 4
  %33 = sub nsw i32 %32, 1
  store i32 %33, i32* %3, align 4
  br label %34

34:                                               ; preds = %79, %31
  %35 = load i32, i32* %3, align 4
  %36 = icmp sge i32 %35, 0
  br i1 %36, label %37, label %82

37:                                               ; preds = %34
  %38 = load i32, i32* %3, align 4
  %39 = sext i32 %38 to i64
  %40 = getelementptr inbounds [1000 x %struct.patient], [1000 x %struct.patient]* %5, i64 0, i64 %39
  %41 = getelementptr inbounds %struct.patient, %struct.patient* %40, i32 0, i32 1
  %42 = load i32, i32* %41, align 4
  %43 = load i32, i32* %3, align 4
  %44 = sub nsw i32 %43, 1
  %45 = sext i32 %44 to i64
  %46 = getelementptr inbounds [1000 x %struct.patient], [1000 x %struct.patient]* %5, i64 0, i64 %45
  %47 = getelementptr inbounds %struct.patient, %struct.patient* %46, i32 0, i32 1
  %48 = load i32, i32* %47, align 4
  %49 = icmp sgt i32 %42, %48
  br i1 %49, label %50, label %78

50:                                               ; preds = %37
  %51 = load i32, i32* %3, align 4
  %52 = sext i32 %51 to i64
  %53 = getelementptr inbounds [1000 x %struct.patient], [1000 x %struct.patient]* %5, i64 0, i64 %52
  %54 = getelementptr inbounds %struct.patient, %struct.patient* %53, i32 0, i32 1
  %55 = load i32, i32* %54, align 4
  %56 = icmp sge i32 %55, 60
  br i1 %56, label %57, label %78

57:                                               ; preds = %50
  %58 = load i32, i32* %3, align 4
  %59 = sext i32 %58 to i64
  %60 = getelementptr inbounds [1000 x %struct.patient], [1000 x %struct.patient]* %5, i64 0, i64 %59
  %61 = bitcast %struct.patient* %6 to i8*
  %62 = bitcast %struct.patient* %60 to i8*
  call void @llvm.memcpy.p0i8.p0i8.i64(i8* align 4 %61, i8* align 16 %62, i64 16, i1 false)
  %63 = load i32, i32* %3, align 4
  %64 = sext i32 %63 to i64
  %65 = getelementptr inbounds [1000 x %struct.patient], [1000 x %struct.patient]* %5, i64 0, i64 %64
  %66 = load i32, i32* %3, align 4
  %67 = sub nsw i32 %66, 1
  %68 = sext i32 %67 to i64
  %69 = getelementptr inbounds [1000 x %struct.patient], [1000 x %struct.patient]* %5, i64 0, i64 %68
  %70 = bitcast %struct.patient* %65 to i8*
  %71 = bitcast %struct.patient* %69 to i8*
  call void @llvm.memcpy.p0i8.p0i8.i64(i8* align 16 %70, i8* align 16 %71, i64 16, i1 false)
  %72 = load i32, i32* %3, align 4
  %73 = sub nsw i32 %72, 1
  %74 = sext i32 %73 to i64
  %75 = getelementptr inbounds [1000 x %struct.patient], [1000 x %struct.patient]* %5, i64 0, i64 %74
  %76 = bitcast %struct.patient* %75 to i8*
  %77 = bitcast %struct.patient* %6 to i8*
  call void @llvm.memcpy.p0i8.p0i8.i64(i8* align 16 %76, i8* align 4 %77, i64 16, i1 false)
  br label %78

78:                                               ; preds = %57, %50, %37
  br label %79

79:                                               ; preds = %78
  %80 = load i32, i32* %3, align 4
  %81 = add nsw i32 %80, -1
  store i32 %81, i32* %3, align 4
  br label %34

82:                                               ; preds = %34
  br label %83

83:                                               ; preds = %82
  %84 = load i32, i32* %2, align 4
  %85 = add nsw i32 %84, 1
  store i32 %85, i32* %2, align 4
  br label %27

86:                                               ; preds = %27
  store i32 0, i32* %2, align 4
  br label %87

87:                                               ; preds = %106, %86
  %88 = load i32, i32* %2, align 4
  %89 = load i32, i32* %1, align 4
  %90 = icmp slt i32 %88, %89
  br i1 %90, label %91, label %109

91:                                               ; preds = %87
  %92 = load i32, i32* %2, align 4
  %93 = sext i32 %92 to i64
  %94 = getelementptr inbounds [1000 x %struct.patient], [1000 x %struct.patient]* %5, i64 0, i64 %93
  %95 = getelementptr inbounds %struct.patient, %struct.patient* %94, i32 0, i32 1
  %96 = load i32, i32* %95, align 4
  %97 = icmp sge i32 %96, 60
  br i1 %97, label %98, label %105

98:                                               ; preds = %91
  %99 = load i32, i32* %2, align 4
  %100 = sext i32 %99 to i64
  %101 = getelementptr inbounds [1000 x %struct.patient], [1000 x %struct.patient]* %5, i64 0, i64 %100
  %102 = getelementptr inbounds %struct.patient, %struct.patient* %101, i32 0, i32 0
  %103 = getelementptr inbounds [10 x i8], [10 x i8]* %102, i64 0, i64 0
  %104 = call i32 (i8*, ...) @printf(i8* getelementptr inbounds ([4 x i8], [4 x i8]* @.str.2, i64 0, i64 0), i8* %103)
  br label %105

105:                                              ; preds = %98, %91
  br label %106

106:                                              ; preds = %105
  %107 = load i32, i32* %2, align 4
  %108 = add nsw i32 %107, 1
  store i32 %108, i32* %2, align 4
  br label %87

109:                                              ; preds = %87
  store i32 0, i32* %2, align 4
  br label %110

110:                                              ; preds = %129, %109
  %111 = load i32, i32* %2, align 4
  %112 = load i32, i32* %1, align 4
  %113 = icmp slt i32 %111, %112
  br i1 %113, label %114, label %132

114:                                              ; preds = %110
  %115 = load i32, i32* %2, align 4
  %116 = sext i32 %115 to i64
  %117 = getelementptr inbounds [1000 x %struct.patient], [1000 x %struct.patient]* %5, i64 0, i64 %116
  %118 = getelementptr inbounds %struct.patient, %struct.patient* %117, i32 0, i32 1
  %119 = load i32, i32* %118, align 4
  %120 = icmp slt i32 %119, 60
  br i1 %120, label %121, label %128

121:                                              ; preds = %114
  %122 = load i32, i32* %2, align 4
  %123 = sext i32 %122 to i64
  %124 = getelementptr inbounds [1000 x %struct.patient], [1000 x %struct.patient]* %5, i64 0, i64 %123
  %125 = getelementptr inbounds %struct.patient, %struct.patient* %124, i32 0, i32 0
  %126 = getelementptr inbounds [10 x i8], [10 x i8]* %125, i64 0, i64 0
  %127 = call i32 (i8*, ...) @printf(i8* getelementptr inbounds ([4 x i8], [4 x i8]* @.str.2, i64 0, i64 0), i8* %126)
  br label %128

128:                                              ; preds = %121, %114
  br label %129

129:                                              ; preds = %128
  %130 = load i32, i32* %2, align 4
  %131 = add nsw i32 %130, 1
  store i32 %131, i32* %2, align 4
  br label %110

132:                                              ; preds = %110
  ret void
}

declare dso_local i32 @__isoc99_scanf(i8*, ...) #1

; Function Attrs: argmemonly nounwind willreturn
declare void @llvm.memcpy.p0i8.p0i8.i64(i8* noalias nocapture writeonly, i8* noalias nocapture readonly, i64, i1 immarg) #2

declare dso_local i32 @printf(i8*, ...) #1


!llvm.module.flags = !{!0}
!llvm.ident = !{!1}

!0 = !{i32 1, !"wchar_size", i32 4}
!1 = !{!"clang version 10.0.0-4ubuntu1 "}
